target datalayout = "e-m:e-p270:32:32-p271:32:32-p272:64:64-i64:64-i128:128-f80:128-n8:16:32:64-S128"
target triple = "x86_64-pc-linux-gnu"

%"class.std::__cxx11::basic_string" = type { %"struct.std::__cxx11::basic_string<char>::_Alloc_hider", i64, %union.anon }
%"struct.std::__cxx11::basic_string<char>::_Alloc_hider" = type { ptr }
%union.anon = type { i64, [8 x i8] }
%"class.rocksdb::VersionStorageInfo" = type { ptr, ptr, i32, i32, %"class.std::vector.3", %"class.rocksdb::autovector", %"class.rocksdb::FileIndexer", [8 x i8], %"class.rocksdb::Arena", i8, ptr, %"class.std::unordered_map", %"class.std::vector.33", i32, i32, double, %"class.std::vector.38", i8, %"class.std::vector.43", %"class.rocksdb::autovector.48", %"class.rocksdb::autovector.48", %"class.rocksdb::autovector.48", %"class.rocksdb::autovector.48", %"class.rocksdb::autovector.48", %"class.rocksdb::autovector.48", i64, i64, i64, %"class.std::vector.54", %"class.std::vector.43", i32, %"class.std::vector.59", i64, i64, i64, i64, i64, i64, i64, i64, i64, ptr, i32, i8, i8, i32, %"struct.rocksdb::OffpeakTimeOption", [8 x i8] }
%"class.std::vector.3" = type { %"struct.std::_Vector_base.4" }
%"struct.std::_Vector_base.4" = type { %"struct.std::_Vector_base<unsigned long, std::allocator<unsigned long>>::_Vector_impl" }
%"struct.std::_Vector_base<unsigned long, std::allocator<unsigned long>>::_Vector_impl" = type { %"struct.std::_Vector_base<unsigned long, std::allocator<unsigned long>>::_Vector_impl_data" }
%"struct.std::_Vector_base<unsigned long, std::allocator<unsigned long>>::_Vector_impl_data" = type { ptr, ptr, ptr }
%"class.rocksdb::autovector" = type { i64, [128 x i8], ptr, %"class.std::vector.8" }
%"class.std::vector.8" = type { %"struct.std::_Vector_base.9" }
%"struct.std::_Vector_base.9" = type { %"struct.std::_Vector_base<rocksdb::LevelFilesBrief, std::allocator<rocksdb::LevelFilesBrief>>::_Vector_impl" }
%"struct.std::_Vector_base<rocksdb::LevelFilesBrief, std::allocator<rocksdb::LevelFilesBrief>>::_Vector_impl" = type { %"struct.std::_Vector_base<rocksdb::LevelFilesBrief, std::allocator<rocksdb::LevelFilesBrief>>::_Vector_impl_data" }
%"struct.std::_Vector_base<rocksdb::LevelFilesBrief, std::allocator<rocksdb::LevelFilesBrief>>::_Vector_impl_data" = type { ptr, ptr, ptr }
%"class.rocksdb::FileIndexer" = type { i64, ptr, %"class.rocksdb::autovector.13", ptr }
%"class.rocksdb::autovector.13" = type { i64, [128 x i8], ptr, %"class.std::vector.14" }
%"class.std::vector.14" = type { %"struct.std::_Vector_base.15" }
%"struct.std::_Vector_base.15" = type { %"struct.std::_Vector_base<rocksdb::FileIndexer::IndexLevel, std::allocator<rocksdb::FileIndexer::IndexLevel>>::_Vector_impl" }
%"struct.std::_Vector_base<rocksdb::FileIndexer::IndexLevel, std::allocator<rocksdb::FileIndexer::IndexLevel>>::_Vector_impl" = type { %"struct.std::_Vector_base<rocksdb::FileIndexer::IndexLevel, std::allocator<rocksdb::FileIndexer::IndexLevel>>::_Vector_impl_data" }
%"struct.std::_Vector_base<rocksdb::FileIndexer::IndexLevel, std::allocator<rocksdb::FileIndexer::IndexLevel>>::_Vector_impl_data" = type { ptr, ptr, ptr }
%"class.rocksdb::Arena" = type { %"class.rocksdb::Allocator", [8 x i8], [2048 x i8], i64, %"class.std::deque", %"class.std::deque.22", i64, ptr, ptr, i64, i64, i64, ptr }
%"class.rocksdb::Allocator" = type { ptr }
%"class.std::deque" = type { %"class.std::_Deque_base" }
%"class.std::_Deque_base" = type { %"struct.std::_Deque_base<std::unique_ptr<char[]>, std::allocator<std::unique_ptr<char[]>>>::_Deque_impl" }
%"struct.std::_Deque_base<std::unique_ptr<char[]>, std::allocator<std::unique_ptr<char[]>>>::_Deque_impl" = type { %"struct.std::_Deque_base<std::unique_ptr<char[]>, std::allocator<std::unique_ptr<char[]>>>::_Deque_impl_data" }
%"struct.std::_Deque_base<std::unique_ptr<char[]>, std::allocator<std::unique_ptr<char[]>>>::_Deque_impl_data" = type { ptr, i64, %"struct.std::_Deque_iterator", %"struct.std::_Deque_iterator" }
%"struct.std::_Deque_iterator" = type { ptr, ptr, ptr, ptr }
%"class.std::deque.22" = type { %"class.std::_Deque_base.23" }
%"class.std::_Deque_base.23" = type { %"struct.std::_Deque_base<rocksdb::MemMapping, std::allocator<rocksdb::MemMapping>>::_Deque_impl" }
%"struct.std::_Deque_base<rocksdb::MemMapping, std::allocator<rocksdb::MemMapping>>::_Deque_impl" = type { %"struct.std::_Deque_base<rocksdb::MemMapping, std::allocator<rocksdb::MemMapping>>::_Deque_impl_data" }
%"struct.std::_Deque_base<rocksdb::MemMapping, std::allocator<rocksdb::MemMapping>>::_Deque_impl_data" = type { ptr, i64, %"struct.std::_Deque_iterator.27", %"struct.std::_Deque_iterator.27" }
%"struct.std::_Deque_iterator.27" = type { ptr, ptr, ptr, ptr }
%"class.std::unordered_map" = type { %"class.std::_Hashtable" }
%"class.std::_Hashtable" = type { ptr, i64, %"struct.std::__detail::_Hash_node_base", i64, %"struct.std::__detail::_Prime_rehash_policy", ptr }
%"struct.std::__detail::_Hash_node_base" = type { ptr }
%"struct.std::__detail::_Prime_rehash_policy" = type { float, i64 }
%"class.std::vector.33" = type { %"struct.std::_Vector_base.34" }
%"struct.std::_Vector_base.34" = type { %"struct.std::_Vector_base<std::shared_ptr<rocksdb::BlobFileMetaData>, std::allocator<std::shared_ptr<rocksdb::BlobFileMetaData>>>::_Vector_impl" }
%"struct.std::_Vector_base<std::shared_ptr<rocksdb::BlobFileMetaData>, std::allocator<std::shared_ptr<rocksdb::BlobFileMetaData>>>::_Vector_impl" = type { %"struct.std::_Vector_base<std::shared_ptr<rocksdb::BlobFileMetaData>, std::allocator<std::shared_ptr<rocksdb::BlobFileMetaData>>>::_Vector_impl_data" }
%"struct.std::_Vector_base<std::shared_ptr<rocksdb::BlobFileMetaData>, std::allocator<std::shared_ptr<rocksdb::BlobFileMetaData>>>::_Vector_impl_data" = type { ptr, ptr, ptr }
%"class.std::vector.38" = type { %"struct.std::_Vector_base.39" }
%"struct.std::_Vector_base.39" = type { %"struct.std::_Vector_base<std::vector<int>, std::allocator<std::vector<int>>>::_Vector_impl" }
%"struct.std::_Vector_base<std::vector<int>, std::allocator<std::vector<int>>>::_Vector_impl" = type { %"struct.std::_Vector_base<std::vector<int>, std::allocator<std::vector<int>>>::_Vector_impl_data" }
%"struct.std::_Vector_base<std::vector<int>, std::allocator<std::vector<int>>>::_Vector_impl_data" = type { ptr, ptr, ptr }
%"class.rocksdb::autovector.48" = type { i64, [128 x i8], ptr, %"class.std::vector.49" }
%"class.std::vector.49" = type { %"struct.std::_Vector_base.50" }
%"struct.std::_Vector_base.50" = type { %"struct.std::_Vector_base<std::pair<int, rocksdb::FileMetaData *>, std::allocator<std::pair<int, rocksdb::FileMetaData *>>>::_Vector_impl" }
%"struct.std::_Vector_base<std::pair<int, rocksdb::FileMetaData *>, std::allocator<std::pair<int, rocksdb::FileMetaData *>>>::_Vector_impl" = type { %"struct.std::_Vector_base<std::pair<int, rocksdb::FileMetaData *>, std::allocator<std::pair<int, rocksdb::FileMetaData *>>>::_Vector_impl_data" }
%"struct.std::_Vector_base<std::pair<int, rocksdb::FileMetaData *>, std::allocator<std::pair<int, rocksdb::FileMetaData *>>>::_Vector_impl_data" = type { ptr, ptr, ptr }
%"class.std::vector.54" = type { %"struct.std::_Vector_base.55" }
%"struct.std::_Vector_base.55" = type { %"struct.std::_Vector_base<double, std::allocator<double>>::_Vector_impl" }
%"struct.std::_Vector_base<double, std::allocator<double>>::_Vector_impl" = type { %"struct.std::_Vector_base<double, std::allocator<double>>::_Vector_impl_data" }
%"struct.std::_Vector_base<double, std::allocator<double>>::_Vector_impl_data" = type { ptr, ptr, ptr }
%"class.std::vector.43" = type { %"struct.std::_Vector_base.44" }
%"struct.std::_Vector_base.44" = type { %"struct.std::_Vector_base<int, std::allocator<int>>::_Vector_impl" }
%"struct.std::_Vector_base<int, std::allocator<int>>::_Vector_impl" = type { %"struct.std::_Vector_base<int, std::allocator<int>>::_Vector_impl_data" }
%"struct.std::_Vector_base<int, std::allocator<int>>::_Vector_impl_data" = type { ptr, ptr, ptr }
%"class.std::vector.59" = type { %"struct.std::_Vector_base.60" }
%"struct.std::_Vector_base.60" = type { %"struct.std::_Vector_base<rocksdb::InternalKey, std::allocator<rocksdb::InternalKey>>::_Vector_impl" }
%"struct.std::_Vector_base<rocksdb::InternalKey, std::allocator<rocksdb::InternalKey>>::_Vector_impl" = type { %"struct.std::_Vector_base<rocksdb::InternalKey, std::allocator<rocksdb::InternalKey>>::_Vector_impl_data" }
%"struct.std::_Vector_base<rocksdb::InternalKey, std::allocator<rocksdb::InternalKey>>::_Vector_impl_data" = type { ptr, ptr, ptr }
%"struct.rocksdb::OffpeakTimeOption" = type { %"class.std::__cxx11::basic_string", i32, i32 }

; Function Attrs: mustprogress nounwind uwtable
define linkonce_odr noundef i64 @_ZNKSt6vectorISt4pairIiPN7rocksdb12FileMetaDataEESaIS4_EE4sizeEv(ptr noundef nonnull align 8 dereferenceable(24) %0) #5 comdat align 2 {
  %2 = alloca ptr, align 8
  store ptr %0, ptr %2, align 8, !tbaa !504
  %3 = load ptr, ptr %2, align 8
  %4 = getelementptr inbounds nuw %"struct.std::_Vector_base.50", ptr %3, i32 0, i32 0
  %5 = getelementptr inbounds nuw %"struct.std::_Vector_base<std::pair<int, rocksdb::FileMetaData *>, std::allocator<std::pair<int, rocksdb::FileMetaData *>>>::_Vector_impl_data", ptr %4, i32 0, i32 1
  %6 = load ptr, ptr %5, align 8, !tbaa !506
  %7 = getelementptr inbounds nuw %"struct.std::_Vector_base.50", ptr %3, i32 0, i32 0
  %8 = getelementptr inbounds nuw %"struct.std::_Vector_base<std::pair<int, rocksdb::FileMetaData *>, std::allocator<std::pair<int, rocksdb::FileMetaData *>>>::_Vector_impl_data", ptr %7, i32 0, i32 0
  %9 = load ptr, ptr %8, align 8, !tbaa !507
  %10 = ptrtoint ptr %6 to i64
  %11 = ptrtoint ptr %9 to i64
  %12 = sub i64 %10, %11
  %13 = sdiv exact i64 %12, 16
  ret i64 %13
}

; Function Attrs: mustprogress nounwind uwtable
define linkonce_odr noundef nonnull align 8 dereferenceable(8) ptr @_ZNKSt6vectorIdSaIdEEixEm(ptr noundef nonnull align 8 dereferenceable(24) %0, i64 noundef %1) #5 comdat align 2 {
  %3 = alloca ptr, align 8
  %4 = alloca i64, align 8
  store ptr %0, ptr %3, align 8, !tbaa !157
  store i64 %1, ptr %4, align 8, !tbaa !4
  %5 = load ptr, ptr %3, align 8
  %6 = getelementptr inbounds nuw %"struct.std::_Vector_base.55", ptr %5, i32 0, i32 0
  %7 = getelementptr inbounds nuw %"struct.std::_Vector_base<double, std::allocator<double>>::_Vector_impl_data", ptr %6, i32 0, i32 0
  %8 = load ptr, ptr %7, align 8, !tbaa !159
  %9 = load i64, ptr %4, align 8, !tbaa !4
  %10 = getelementptr inbounds nuw double, ptr %8, i64 %9
  ret ptr %10
}

; Function Attrs: mustprogress nounwind uwtable
define linkonce_odr noundef i64 @_ZNK7rocksdb10autovectorISt4pairIiPNS_12FileMetaDataEELm8EE4sizeEv(ptr noundef nonnull align 8 dereferenceable(168) %0) #5 comdat align 2 {
  %2 = alloca ptr, align 8
  store ptr %0, ptr %2, align 8, !tbaa !72
  %3 = load ptr, ptr %2, align 8
  %4 = getelementptr inbounds nuw %"class.rocksdb::autovector.48", ptr %3, i32 0, i32 0
  %5 = load i64, ptr %4, align 8, !tbaa !386
  %6 = getelementptr inbounds nuw %"class.rocksdb::autovector.48", ptr %3, i32 0, i32 3
  %7 = call noundef i64 @_ZNKSt6vectorISt4pairIiPN7rocksdb12FileMetaDataEESaIS4_EE4sizeEv(ptr noundef nonnull align 8 dereferenceable(24) %6) #6
  %8 = add i64 %5, %7
  ret i64 %8
}

; Function Attrs: mustprogress nounwind uwtable
define linkonce_odr noundef double @_ZNK7rocksdb18VersionStorageInfo15CompactionScoreEi(ptr noundef nonnull align 16 dereferenceable(4120) %0, i32 noundef %1) #5 comdat align 2 {
  %3 = alloca ptr, align 8
  %4 = alloca i32, align 4
  store ptr %0, ptr %3, align 8, !tbaa !68
  store i32 %1, ptr %4, align 4, !tbaa !15
  %5 = load ptr, ptr %3, align 8
  %6 = getelementptr inbounds nuw %"class.rocksdb::VersionStorageInfo", ptr %5, i32 0, i32 28
  %7 = load i32, ptr %4, align 4, !tbaa !15
  %8 = sext i32 %7 to i64
  %9 = call noundef nonnull align 8 dereferenceable(8) ptr @_ZNKSt6vectorIdSaIdEEixEm(ptr noundef nonnull align 8 dereferenceable(24) %6, i64 noundef %8) #6
  %10 = load double, ptr %9, align 8, !tbaa !74
  ret double %10
}

; Function Attrs: mustprogress nounwind uwtable
define linkonce_odr noundef nonnull align 8 dereferenceable(168) ptr @_ZNK7rocksdb18VersionStorageInfo26FilesMarkedForForcedBlobGCEv(ptr noundef nonnull align 16 dereferenceable(4120) %0) #5 comdat align 2 {
  %2 = alloca ptr, align 8
  store ptr %0, ptr %2, align 8, !tbaa !68
  %3 = load ptr, ptr %2, align 8
  %4 = getelementptr inbounds nuw %"class.rocksdb::VersionStorageInfo", ptr %3, i32 0, i32 24
  ret ptr %4
}

; Function Attrs: mustprogress nounwind uwtable
define linkonce_odr noundef nonnull align 8 dereferenceable(168) ptr @_ZNK7rocksdb18VersionStorageInfo24FilesMarkedForCompactionEv(ptr noundef nonnull align 16 dereferenceable(4120) %0) #5 comdat align 2 {
  %2 = alloca ptr, align 8
  store ptr %0, ptr %2, align 8, !tbaa !68
  %3 = load ptr, ptr %2, align 8
  %4 = getelementptr inbounds nuw %"class.rocksdb::VersionStorageInfo", ptr %3, i32 0, i32 19
  ret ptr %4
}

; Function Attrs: mustprogress nounwind uwtable
define linkonce_odr noundef nonnull align 8 dereferenceable(168) ptr @_ZNK7rocksdb18VersionStorageInfo34BottommostFilesMarkedForCompactionEv(ptr noundef nonnull align 16 dereferenceable(4120) %0) #5 comdat align 2 {
  %2 = alloca ptr, align 8
  store ptr %0, ptr %2, align 8, !tbaa !68
  %3 = load ptr, ptr %2, align 8
  %4 = getelementptr inbounds nuw %"class.rocksdb::VersionStorageInfo", ptr %3, i32 0, i32 23
  ret ptr %4
}

; Function Attrs: mustprogress nounwind uwtable
define linkonce_odr noundef nonnull align 8 dereferenceable(168) ptr @_ZNK7rocksdb18VersionStorageInfo32FilesMarkedForPeriodicCompactionEv(ptr noundef nonnull align 16 dereferenceable(4120) %0) #5 comdat align 2 {
  %2 = alloca ptr, align 8
  store ptr %0, ptr %2, align 8, !tbaa !68
  %3 = load ptr, ptr %2, align 8
  %4 = getelementptr inbounds nuw %"class.rocksdb::VersionStorageInfo", ptr %3, i32 0, i32 21
  ret ptr %4
}

; Function Attrs: mustprogress nounwind uwtable
define linkonce_odr noundef zeroext i1 @_ZNK7rocksdb10autovectorISt4pairIiPNS_12FileMetaDataEELm8EE5emptyEv(ptr noundef nonnull align 8 dereferenceable(168) %0) #5 comdat align 2 {
  %2 = alloca ptr, align 8
  store ptr %0, ptr %2, align 8, !tbaa !72
  %3 = load ptr, ptr %2, align 8
  %4 = call noundef i64 @_ZNK7rocksdb10autovectorISt4pairIiPNS_12FileMetaDataEELm8EE4sizeEv(ptr noundef nonnull align 8 dereferenceable(168) %3)
  %5 = icmp eq i64 %4, 0
  ret i1 %5
}

; Function Attrs: mustprogress nounwind uwtable
define linkonce_odr noundef nonnull align 8 dereferenceable(168) ptr @_ZNK7rocksdb18VersionStorageInfo15ExpiredTtlFilesEv(ptr noundef nonnull align 16 dereferenceable(4120) %0) #5 comdat align 2 {
  %2 = alloca ptr, align 8
  store ptr %0, ptr %2, align 8, !tbaa !68
  %3 = load ptr, ptr %2, align 8
  %4 = getelementptr inbounds nuw %"class.rocksdb::VersionStorageInfo", ptr %3, i32 0, i32 20
  ret ptr %4
}

; Function Attrs: mustprogress uwtable
define noundef zeroext i1 @_ZNK7rocksdb21LevelCompactionPicker15NeedsCompactionEPKNS_18VersionStorageInfoE(ptr noundef nonnull align 8 dereferenceable(128) %0, ptr noundef %1) unnamed_addr #4 align 2 {
  %3 = alloca i1, align 1
  %4 = alloca ptr, align 8
  %5 = alloca ptr, align 8
  %6 = alloca i32, align 4
  %7 = alloca i32, align 4
  store ptr %0, ptr %4, align 8, !tbaa !66
  store ptr %1, ptr %5, align 8, !tbaa !68
  %8 = load ptr, ptr %5, align 8, !tbaa !68
  %9 = call noundef nonnull align 8 dereferenceable(168) ptr @_ZNK7rocksdb18VersionStorageInfo15ExpiredTtlFilesEv(ptr noundef nonnull align 16 dereferenceable(4120) %8)
  %10 = call noundef zeroext i1 @_ZNK7rocksdb10autovectorISt4pairIiPNS_12FileMetaDataEELm8EE5emptyEv(ptr noundef nonnull align 8 dereferenceable(168) %9)
  br i1 %10, label %12, label %11

11:                                               ; preds = %2
  store i1 true, ptr %3, align 1
  br label %52

12:                                               ; preds = %2
  %13 = load ptr, ptr %5, align 8, !tbaa !68
  %14 = call noundef nonnull align 8 dereferenceable(168) ptr @_ZNK7rocksdb18VersionStorageInfo32FilesMarkedForPeriodicCompactionEv(ptr noundef nonnull align 16 dereferenceable(4120) %13)
  %15 = call noundef zeroext i1 @_ZNK7rocksdb10autovectorISt4pairIiPNS_12FileMetaDataEELm8EE5emptyEv(ptr noundef nonnull align 8 dereferenceable(168) %14)
  br i1 %15, label %17, label %16

16:                                               ; preds = %12
  store i1 true, ptr %3, align 1
  br label %52

17:                                               ; preds = %12
  %18 = load ptr, ptr %5, align 8, !tbaa !68
  %19 = call noundef nonnull align 8 dereferenceable(168) ptr @_ZNK7rocksdb18VersionStorageInfo34BottommostFilesMarkedForCompactionEv(ptr noundef nonnull align 16 dereferenceable(4120) %18)
  %20 = call noundef zeroext i1 @_ZNK7rocksdb10autovectorISt4pairIiPNS_12FileMetaDataEELm8EE5emptyEv(ptr noundef nonnull align 8 dereferenceable(168) %19)
  br i1 %20, label %22, label %21

21:                                               ; preds = %17
  store i1 true, ptr %3, align 1
  br label %52

22:                                               ; preds = %17
  %23 = load ptr, ptr %5, align 8, !tbaa !68
  %24 = call noundef nonnull align 8 dereferenceable(168) ptr @_ZNK7rocksdb18VersionStorageInfo24FilesMarkedForCompactionEv(ptr noundef nonnull align 16 dereferenceable(4120) %23)
  %25 = call noundef zeroext i1 @_ZNK7rocksdb10autovectorISt4pairIiPNS_12FileMetaDataEELm8EE5emptyEv(ptr noundef nonnull align 8 dereferenceable(168) %24)
  br i1 %25, label %27, label %26

26:                                               ; preds = %22
  store i1 true, ptr %3, align 1
  br label %52

27:                                               ; preds = %22
  %28 = load ptr, ptr %5, align 8, !tbaa !68
  %29 = call noundef nonnull align 8 dereferenceable(168) ptr @_ZNK7rocksdb18VersionStorageInfo26FilesMarkedForForcedBlobGCEv(ptr noundef nonnull align 16 dereferenceable(4120) %28)
  %30 = call noundef zeroext i1 @_ZNK7rocksdb10autovectorISt4pairIiPNS_12FileMetaDataEELm8EE5emptyEv(ptr noundef nonnull align 8 dereferenceable(168) %29)
  br i1 %30, label %32, label %31

31:                                               ; preds = %27
  store i1 true, ptr %3, align 1
  br label %52

32:                                               ; preds = %27
  call void @llvm.lifetime.start.p0(i64 4, ptr %6) #6
  store i32 0, ptr %6, align 4, !tbaa !15
  br label %33

33:                                               ; preds = %46, %32
  %34 = load i32, ptr %6, align 4, !tbaa !15
  %35 = load ptr, ptr %5, align 8, !tbaa !68
  %36 = call noundef i32 @_ZNK7rocksdb18VersionStorageInfo13MaxInputLevelEv(ptr noundef nonnull align 16 dereferenceable(4120) %35)
  %37 = icmp sle i32 %34, %36
  br i1 %37, label %39, label %38

38:                                               ; preds = %33
  store i32 2, ptr %7, align 4
  br label %49

39:                                               ; preds = %33
  %40 = load ptr, ptr %5, align 8, !tbaa !68
  %41 = load i32, ptr %6, align 4, !tbaa !15
  %42 = call noundef double @_ZNK7rocksdb18VersionStorageInfo15CompactionScoreEi(ptr noundef nonnull align 16 dereferenceable(4120) %40, i32 noundef %41)
  %43 = fcmp oge double %42, 1.000000e+00
  br i1 %43, label %44, label %45

44:                                               ; preds = %39
  store i1 true, ptr %3, align 1
  store i32 1, ptr %7, align 4
  br label %49

45:                                               ; preds = %39
  br label %46

46:                                               ; preds = %45
  %47 = load i32, ptr %6, align 4, !tbaa !15
  %48 = add nsw i32 %47, 1
  store i32 %48, ptr %6, align 4, !tbaa !15
  br label %33, !llvm.loop !70

49:                                               ; preds = %44, %38
  call void @llvm.lifetime.end.p0(i64 4, ptr %6) #6
  %50 = load i32, ptr %7, align 4
  switch i32 %50, label %54 [
    i32 2, label %51
    i32 1, label %52
  ]

51:                                               ; preds = %49
  store i1 false, ptr %3, align 1
  br label %52

52:                                               ; preds = %51, %49, %31, %26, %21, %16, %11
  %53 = load i1, ptr %3, align 1
  ret i1 %53

54:                                               ; preds = %49
  unreachable
}