; Function Attrs: mustprogress uwtable
define noundef zeroext i1 @_ZNK7rocksdb21LevelCompactionPicker15NeedsCompactionEPKNS_18VersionStorageInfoE(ptr nonnull readnone align 8 captures(none) %0, ptr noundef %1) unnamed_addr #4 align 2 {
  %3 = getelementptr inbounds nuw i8, ptr %1, i64 3040
  %4 = load i64, ptr %3, align 8, !tbaa !18
  %5 = getelementptr inbounds nuw i8, ptr %1, i64 3184
  %6 = getelementptr inbounds nuw i8, ptr %1, i64 3192
  %7 = load ptr, ptr %6, align 8, !tbaa !25
  %8 = load ptr, ptr %5, align 8, !tbaa !26
  %9 = ptrtoint ptr %7 to i64
  %10 = ptrtoint ptr %8 to i64
  %11 = sub i64 %9, %10
  %12 = ashr exact i64 %11, 4
  %13 = sub i64 0, %4
  %14 = icmp eq i64 %12, %13
  br i1 %14, label %15, label %.loopexit

15:                                               ; preds = %2
  %16 = getelementptr inbounds nuw i8, ptr %1, i64 3208
  %17 = load i64, ptr %16, align 8, !tbaa !18
  %18 = getelementptr inbounds nuw i8, ptr %1, i64 3352
  %19 = getelementptr inbounds nuw i8, ptr %1, i64 3360
  %20 = load ptr, ptr %19, align 8, !tbaa !25
  %21 = load ptr, ptr %18, align 8, !tbaa !26
  %22 = ptrtoint ptr %20 to i64
  %23 = ptrtoint ptr %21 to i64
  %24 = sub i64 %22, %23
  %25 = ashr exact i64 %24, 4
  %26 = sub i64 0, %17
  %27 = icmp eq i64 %25, %26
  br i1 %27, label %28, label %.loopexit

28:                                               ; preds = %15
  %29 = getelementptr inbounds nuw i8, ptr %1, i64 3544
  %30 = load i64, ptr %29, align 8, !tbaa !18
  %31 = getelementptr inbounds nuw i8, ptr %1, i64 3688
  %32 = getelementptr inbounds nuw i8, ptr %1, i64 3696
  %33 = load ptr, ptr %32, align 8, !tbaa !25
  %34 = load ptr, ptr %31, align 8, !tbaa !26
  %35 = ptrtoint ptr %33 to i64
  %36 = ptrtoint ptr %34 to i64
  %37 = sub i64 %35, %36
  %38 = ashr exact i64 %37, 4
  %39 = sub i64 0, %30
  %40 = icmp eq i64 %38, %39
  br i1 %40, label %41, label %.loopexit

41:                                               ; preds = %28
  %42 = getelementptr inbounds nuw i8, ptr %1, i64 2872
  %43 = load i64, ptr %42, align 8, !tbaa !18
  %44 = getelementptr inbounds nuw i8, ptr %1, i64 3016
  %45 = getelementptr inbounds nuw i8, ptr %1, i64 3024
  %46 = load ptr, ptr %45, align 8, !tbaa !25
  %47 = load ptr, ptr %44, align 8, !tbaa !26
  %48 = ptrtoint ptr %46 to i64
  %49 = ptrtoint ptr %47 to i64
  %50 = sub i64 %48, %49
  %51 = ashr exact i64 %50, 4
  %52 = sub i64 0, %43
  %53 = icmp eq i64 %51, %52
  br i1 %53, label %54, label %.loopexit

54:                                               ; preds = %41
  %55 = getelementptr inbounds nuw i8, ptr %1, i64 3712
  %56 = load i64, ptr %55, align 8, !tbaa !18
  %57 = getelementptr inbounds nuw i8, ptr %1, i64 3856
  %58 = getelementptr inbounds nuw i8, ptr %1, i64 3864
  %59 = load ptr, ptr %58, align 8, !tbaa !25
  %60 = load ptr, ptr %57, align 8, !tbaa !26
  %61 = ptrtoint ptr %59 to i64
  %62 = ptrtoint ptr %60 to i64
  %63 = sub i64 %61, %62
  %64 = ashr exact i64 %63, 4
  %65 = sub i64 0, %56
  %66 = icmp eq i64 %64, %65
  br i1 %66, label %.preheader, label %.loopexit

.preheader:                                       ; preds = %54
  %67 = getelementptr inbounds nuw i8, ptr %1, i64 3904
  %68 = tail call noundef i32 @_ZNK7rocksdb18VersionStorageInfo13MaxInputLevelEv(ptr noundef nonnull align 16 dereferenceable(4120) %1)
  %.not13 = icmp sgt i32 %68, -1
  br i1 %.not13, label %.lr.ph, label %.loopexit

69:                                               ; preds = %.lr.ph
  %indvars.iv.next = add nuw nsw i64 %indvars.iv, 1
  %70 = tail call noundef i32 @_ZNK7rocksdb18VersionStorageInfo13MaxInputLevelEv(ptr noundef nonnull align 16 dereferenceable(4120) %1)
  %71 = sext i32 %70 to i64
  %.not = icmp slt i64 %indvars.iv, %71
  br i1 %.not, label %.lr.ph, label %.loopexit, !llvm.loop !27

.lr.ph:                                           ; preds = %.preheader, %69
  %indvars.iv = phi i64 [ %indvars.iv.next, %69 ], [ 0, %.preheader ]
  %72 = load ptr, ptr %67, align 8, !tbaa !29
  %73 = getelementptr inbounds nuw double, ptr %72, i64 %indvars.iv
  %74 = load double, ptr %73, align 8, !tbaa !32
  %75 = fcmp oge double %74, 1.000000e+00
  br i1 %75, label %.loopexit, label %69

.loopexit:                                        ; preds = %.lr.ph, %69, %.preheader, %54, %41, %28, %15, %2
  %.012 = phi i1 [ true, %2 ], [ true, %15 ], [ true, %28 ], [ true, %41 ], [ true, %54 ], [ false, %.preheader ], [ %75, %69 ], [ %75, %.lr.ph ]
  ret i1 %.012
}